target datalayout = "e-m:e-p270:32:32-p271:32:32-p272:64:64-i64:64-i128:128-f80:128-n8:16:32:64-S128"
target triple = "x86_64-pc-linux-gnu"

%struct._typeobject = type { %struct.PyVarObject, ptr, i64, i64, ptr, i64, ptr, ptr, ptr, ptr, ptr, ptr, ptr, ptr, ptr, ptr, ptr, ptr, ptr, i64, ptr, ptr, ptr, ptr, i64, ptr, ptr, ptr, ptr, ptr, ptr, ptr, ptr, ptr, i64, ptr, ptr, ptr, ptr, ptr, ptr, ptr, ptr, ptr, ptr, ptr, i32, ptr, ptr }
%struct.PyVarObject = type { %struct._object, i64 }
%struct._object = type { i64, ptr }
%"struct.nanobind::detail::nb_shard" = type { %"class.tsl::robin_map", %"class.tsl::robin_map" }
%"class.tsl::robin_map" = type { %"class.tsl::detail_robin_hash::robin_hash" }
%"class.tsl::detail_robin_hash::robin_hash" = type <{ %"class.tsl::rh::power_of_two_growth_policy", %"class.std::vector", ptr, i64, i64, i64, float, float, i8, i8, [6 x i8] }>
%"class.tsl::rh::power_of_two_growth_policy" = type { i64 }
%"class.std::vector" = type { %"struct.std::_Vector_base" }
%"struct.std::_Vector_base" = type { %"struct.std::_Vector_base<tsl::detail_robin_hash::bucket_entry<std::pair<void *, void *>, true>, std::allocator<tsl::detail_robin_hash::bucket_entry<std::pair<void *, void *>, true>>>::_Vector_impl" }
%"struct.std::_Vector_base<tsl::detail_robin_hash::bucket_entry<std::pair<void *, void *>, true>, std::allocator<tsl::detail_robin_hash::bucket_entry<std::pair<void *, void *>, true>>>::_Vector_impl" = type { %"struct.std::_Vector_base<tsl::detail_robin_hash::bucket_entry<std::pair<void *, void *>, true>, std::allocator<tsl::detail_robin_hash::bucket_entry<std::pair<void *, void *>, true>>>::_Vector_impl_data" }
%"struct.std::_Vector_base<tsl::detail_robin_hash::bucket_entry<std::pair<void *, void *>, true>, std::allocator<tsl::detail_robin_hash::bucket_entry<std::pair<void *, void *>, true>>>::_Vector_impl_data" = type { ptr, ptr, ptr }
%"struct.nanobind::detail::nb_internals" = type { ptr, ptr, ptr, ptr, ptr, ptr, %"struct.nanobind::detail::nb_maybe_atomic", ptr, i8, %"struct.nanobind::detail::nb_maybe_atomic", [1 x %"struct.nanobind::detail::nb_shard"], %"class.tsl::robin_map.1", %"class.tsl::robin_map.11", %"class.tsl::robin_map", %"struct.nanobind::detail::nb_translator_seq", i8, i8, ptr, i64 }
%"struct.nanobind::detail::nb_maybe_atomic" = type { ptr }
%"class.tsl::robin_map.1" = type { %"class.tsl::detail_robin_hash::robin_hash.2" }
%"class.tsl::detail_robin_hash::robin_hash.2" = type <{ %"class.tsl::rh::power_of_two_growth_policy", %"class.std::vector.5", ptr, i64, i64, i64, float, float, i8, i8, [6 x i8] }>
%"class.std::vector.5" = type { %"struct.std::_Vector_base.6" }
%"struct.std::_Vector_base.6" = type { %"struct.std::_Vector_base<tsl::detail_robin_hash::bucket_entry<std::pair<const std::type_info *, nanobind::detail::type_data *>, true>, std::allocator<tsl::detail_robin_hash::bucket_entry<std::pair<const std::type_info *, nanobind::detail::type_data *>, true>>>::_Vector_impl" }
%"struct.std::_Vector_base<tsl::detail_robin_hash::bucket_entry<std::pair<const std::type_info *, nanobind::detail::type_data *>, true>, std::allocator<tsl::detail_robin_hash::bucket_entry<std::pair<const std::type_info *, nanobind::detail::type_data *>, true>>>::_Vector_impl" = type { %"struct.std::_Vector_base<tsl::detail_robin_hash::bucket_entry<std::pair<const std::type_info *, nanobind::detail::type_data *>, true>, std::allocator<tsl::detail_robin_hash::bucket_entry<std::pair<const std::type_info *, nanobind::detail::type_data *>, true>>>::_Vector_impl_data" }
%"struct.std::_Vector_base<tsl::detail_robin_hash::bucket_entry<std::pair<const std::type_info *, nanobind::detail::type_data *>, true>, std::allocator<tsl::detail_robin_hash::bucket_entry<std::pair<const std::type_info *, nanobind::detail::type_data *>, true>>>::_Vector_impl_data" = type { ptr, ptr, ptr }
%"class.tsl::robin_map.11" = type { %"class.tsl::detail_robin_hash::robin_hash.12" }
%"class.tsl::detail_robin_hash::robin_hash.12" = type <{ %"class.tsl::rh::power_of_two_growth_policy", %"class.std::vector.5", ptr, i64, i64, i64, float, float, i8, i8, [6 x i8] }>
%"struct.nanobind::detail::nb_translator_seq" = type { ptr, ptr, ptr }

@_ZN8nanobind6detail9internalsE = external hidden global ptr, align 8
@PyExc_AttributeError = external global ptr, align 8
@.str = private unnamed_addr constant [66 x i8] c"internal nanobind attribute '%s' cannot be reassigned or deleted.\00", align 1
@PyType_Type = external global %struct._typeobject, align 8

; Function Attrs: inlinehint mustprogress uwtable
define internal void @_ZL10_Py_DECREFP7_object(ptr noundef %0) #10 {
  %2 = alloca ptr, align 8
  store ptr %0, ptr %2, align 8
  %3 = load ptr, ptr %2, align 8
  %4 = getelementptr inbounds nuw %struct._object, ptr %3, i32 0, i32 0
  %5 = load i64, ptr %4, align 8
  %6 = add nsw i64 %5, -1
  store i64 %6, ptr %4, align 8
  %7 = icmp ne i64 %6, 0
  br i1 %7, label %8, label %9

8:                                                ; preds = %1
  br label %11

9:                                                ; preds = %1
  %10 = load ptr, ptr %2, align 8
  call void @_Py_Dealloc(ptr noundef %10)
  br label %11

11:                                               ; preds = %9, %8
  ret void
}

; Function Attrs: mustprogress nounwind uwtable
define linkonce_odr hidden noundef ptr @_ZN8nanobind6detail15nb_maybe_atomicIP11_typeobjectE12load_acquireEv(ptr noundef nonnull align 8 dereferenceable(8) %0) #6 comdat align 2 {
  %2 = alloca ptr, align 8
  store ptr %0, ptr %2, align 8
  %3 = load ptr, ptr %2, align 8
  %4 = getelementptr inbounds nuw %"struct.nanobind::detail::nb_maybe_atomic", ptr %3, i32 0, i32 0
  %5 = load ptr, ptr %4, align 8
  ret ptr %5
}

; Function Attrs: mustprogress uwtable
define hidden noundef i32 @_ZN8nanobind6detail16nb_type_setattroEP7_objectS2_S2_(ptr noundef %0, ptr noundef %1, ptr noundef %2) #0 {
  %4 = alloca i32, align 4
  %5 = alloca ptr, align 8
  %6 = alloca ptr, align 8
  %7 = alloca ptr, align 8
  %8 = alloca ptr, align 8
  %9 = alloca ptr, align 8
  %10 = alloca ptr, align 8
  %11 = alloca i32, align 4
  %12 = alloca i32, align 4
  %13 = alloca ptr, align 8
  store ptr %0, ptr %5, align 8
  store ptr %1, ptr %6, align 8
  store ptr %2, ptr %7, align 8
  call void @llvm.lifetime.start.p0(i64 8, ptr %8) #20
  %14 = load ptr, ptr @_ZN8nanobind6detail9internalsE, align 8
  store ptr %14, ptr %8, align 8
  %15 = load ptr, ptr %8, align 8
  %16 = getelementptr inbounds nuw %"struct.nanobind::detail::nb_internals", ptr %15, i32 0, i32 8
  store i8 1, ptr %16, align 8
  call void @llvm.lifetime.start.p0(i64 8, ptr %9) #20
  %17 = load ptr, ptr %5, align 8
  %18 = load ptr, ptr %6, align 8
  %19 = call ptr @PyObject_GetAttr(ptr noundef %17, ptr noundef %18)
  store ptr %19, ptr %9, align 8
  %20 = load ptr, ptr %8, align 8
  %21 = getelementptr inbounds nuw %"struct.nanobind::detail::nb_internals", ptr %20, i32 0, i32 8
  store i8 0, ptr %21, align 8
  %22 = load ptr, ptr %9, align 8
  %23 = icmp ne ptr %22, null
  br i1 %23, label %24, label %72

24:                                               ; preds = %3
  call void @llvm.lifetime.start.p0(i64 8, ptr %10) #20
  %25 = load ptr, ptr %8, align 8
  %26 = getelementptr inbounds nuw %"struct.nanobind::detail::nb_internals", ptr %25, i32 0, i32 6
  %27 = call noundef ptr @_ZN8nanobind6detail15nb_maybe_atomicIP11_typeobjectE12load_acquireEv(ptr noundef nonnull align 8 dereferenceable(8) %26)
  store ptr %27, ptr %10, align 8
  %28 = load ptr, ptr %9, align 8
  %29 = getelementptr inbounds nuw %struct._object, ptr %28, i32 0, i32 1
  %30 = load ptr, ptr %29, align 8
  %31 = load ptr, ptr %10, align 8
  %32 = icmp eq ptr %30, %31
  br i1 %32, label %33, label %49

33:                                               ; preds = %24
  %34 = load ptr, ptr %7, align 8
  %35 = getelementptr inbounds nuw %struct._object, ptr %34, i32 0, i32 1
  %36 = load ptr, ptr %35, align 8
  %37 = load ptr, ptr %10, align 8
  %38 = icmp ne ptr %36, %37
  br i1 %38, label %39, label %49

39:                                               ; preds = %33
  call void @llvm.lifetime.start.p0(i64 4, ptr %11) #20
  %40 = load ptr, ptr %8, align 8
  %41 = getelementptr inbounds nuw %"struct.nanobind::detail::nb_internals", ptr %40, i32 0, i32 7
  %42 = load ptr, ptr %41, align 8
  %43 = load ptr, ptr %9, align 8
  %44 = load ptr, ptr %5, align 8
  %45 = load ptr, ptr %7, align 8
  %46 = call noundef i32 %42(ptr noundef %43, ptr noundef %44, ptr noundef %45)
  store i32 %46, ptr %11, align 4
  %47 = load ptr, ptr %9, align 8
  call void @_ZL10_Py_DECREFP7_object(ptr noundef %47)
  %48 = load i32, ptr %11, align 4
  store i32 %48, ptr %4, align 4
  store i32 1, ptr %12, align 4
  call void @llvm.lifetime.end.p0(i64 4, ptr %11) #20
  br label %69

49:                                               ; preds = %33, %24
  %50 = load ptr, ptr %9, align 8
  call void @_ZL10_Py_DECREFP7_object(ptr noundef %50)
  call void @llvm.lifetime.start.p0(i64 8, ptr %13) #20
  %51 = load ptr, ptr %6, align 8
  %52 = call ptr @PyUnicode_AsUTF8AndSize(ptr noundef %51, ptr noundef null)
  store ptr %52, ptr %13, align 8
  %53 = load ptr, ptr %13, align 8
  %54 = icmp ne ptr %53, null
  br i1 %54, label %56, label %55

55:                                               ; preds = %49
  call void @PyErr_Clear()
  br label %67

56:                                               ; preds = %49
  %57 = load ptr, ptr %13, align 8
  %58 = getelementptr inbounds i8, ptr %57, i64 0
  %59 = load i8, ptr %58, align 1
  %60 = sext i8 %59 to i32
  %61 = icmp eq i32 %60, 64
  br i1 %61, label %62, label %66

62:                                               ; preds = %56
  %63 = load ptr, ptr @PyExc_AttributeError, align 8
  %64 = load ptr, ptr %13, align 8
  %65 = call ptr (ptr, ptr, ...) @PyErr_Format(ptr noundef %63, ptr noundef @.str, ptr noundef %64)
  store i32 -1, ptr %4, align 4
  store i32 1, ptr %12, align 4
  br label %68

66:                                               ; preds = %56
  br label %67

67:                                               ; preds = %66, %55
  store i32 0, ptr %12, align 4
  br label %68

68:                                               ; preds = %67, %62
  call void @llvm.lifetime.end.p0(i64 8, ptr %13) #20
  br label %69

69:                                               ; preds = %68, %39
  call void @llvm.lifetime.end.p0(i64 8, ptr %10) #20
  %70 = load i32, ptr %12, align 4
  switch i32 %70, label %79 [
    i32 0, label %71
  ]

71:                                               ; preds = %69
  br label %73

72:                                               ; preds = %3
  call void @PyErr_Clear()
  br label %73

73:                                               ; preds = %72, %71
  %74 = load ptr, ptr getelementptr inbounds nuw (%struct._typeobject, ptr @PyType_Type, i32 0, i32 17), align 8
  %75 = load ptr, ptr %5, align 8
  %76 = load ptr, ptr %6, align 8
  %77 = load ptr, ptr %7, align 8
  %78 = call noundef i32 %74(ptr noundef %75, ptr noundef %76, ptr noundef %77)
  store i32 %78, ptr %4, align 4
  store i32 1, ptr %12, align 4
  br label %79

79:                                               ; preds = %73, %69
  call void @llvm.lifetime.end.p0(i64 8, ptr %9) #20
  call void @llvm.lifetime.end.p0(i64 8, ptr %8) #20
  %80 = load i32, ptr %4, align 4
  ret i32 %80
}