; Function Attrs: mustprogress uwtable
define hidden noundef i32 @_ZN8nanobind6detail16nb_type_setattroEP7_objectS2_S2_(ptr noundef %0, ptr noundef %1, ptr noundef %2) #0 {
  %4 = load ptr, ptr @_ZN8nanobind6detail9internalsE, align 8
  %5 = getelementptr inbounds nuw i8, ptr %4, i64 64
  store i8 1, ptr %5, align 8
  %6 = tail call ptr @PyObject_GetAttr(ptr noundef %0, ptr noundef %1)
  store i8 0, ptr %5, align 8
  %.not = icmp eq ptr %6, null
  br i1 %.not, label %_ZL10_Py_DECREFP7_object.exit.sink.split, label %7

7:                                                ; preds = %3
  %8 = getelementptr inbounds nuw i8, ptr %4, i64 48
  %9 = load ptr, ptr %8, align 8
  %10 = getelementptr inbounds nuw i8, ptr %6, i64 8
  %11 = load ptr, ptr %10, align 8
  %12 = icmp eq ptr %11, %9
  br i1 %12, label %13, label %23

13:                                               ; preds = %7
  %14 = getelementptr inbounds nuw i8, ptr %2, i64 8
  %15 = load ptr, ptr %14, align 8
  %.not30 = icmp eq ptr %15, %9
  br i1 %.not30, label %23, label %16

16:                                               ; preds = %13
  %17 = getelementptr inbounds nuw i8, ptr %4, i64 56
  %18 = load ptr, ptr %17, align 8
  %19 = tail call noundef i32 %18(ptr noundef nonnull %6, ptr noundef %0, ptr noundef nonnull %2)
  %20 = load i64, ptr %6, align 8
  %21 = add nsw i64 %20, -1
  store i64 %21, ptr %6, align 8
  %.not.i = icmp eq i64 %21, 0
  br i1 %.not.i, label %22, label %_ZL10_Py_DECREFP7_object.exit.thread

22:                                               ; preds = %16
  tail call void @_Py_Dealloc(ptr noundef nonnull %6)
  br label %_ZL10_Py_DECREFP7_object.exit.thread

23:                                               ; preds = %13, %7
  %24 = load i64, ptr %6, align 8
  %25 = add nsw i64 %24, -1
  store i64 %25, ptr %6, align 8
  %.not.i32 = icmp eq i64 %25, 0
  br i1 %.not.i32, label %26, label %_ZL10_Py_DECREFP7_object.exit33

26:                                               ; preds = %23
  tail call void @_Py_Dealloc(ptr noundef nonnull %6)
  br label %_ZL10_Py_DECREFP7_object.exit33

_ZL10_Py_DECREFP7_object.exit33:                  ; preds = %23, %26
  %27 = tail call ptr @PyUnicode_AsUTF8AndSize(ptr noundef %1, ptr noundef null)
  %.not31 = icmp eq ptr %27, null
  br i1 %.not31, label %_ZL10_Py_DECREFP7_object.exit.sink.split, label %28

28:                                               ; preds = %_ZL10_Py_DECREFP7_object.exit33
  %29 = load i8, ptr %27, align 1
  %30 = icmp eq i8 %29, 64
  br i1 %30, label %31, label %_ZL10_Py_DECREFP7_object.exit

31:                                               ; preds = %28
  %32 = load ptr, ptr @PyExc_AttributeError, align 8
  %33 = tail call ptr (ptr, ptr, ...) @PyErr_Format(ptr noundef %32, ptr noundef nonnull @.str, ptr noundef nonnull %27)
  br label %_ZL10_Py_DECREFP7_object.exit.thread

_ZL10_Py_DECREFP7_object.exit.sink.split:         ; preds = %3, %_ZL10_Py_DECREFP7_object.exit33
  tail call void @PyErr_Clear()
  br label %_ZL10_Py_DECREFP7_object.exit

_ZL10_Py_DECREFP7_object.exit:                    ; preds = %_ZL10_Py_DECREFP7_object.exit.sink.split, %28
  %34 = load ptr, ptr getelementptr inbounds nuw (i8, ptr @PyType_Type, i64 152), align 8
  %35 = tail call noundef i32 %34(ptr noundef %0, ptr noundef %1, ptr noundef %2)
  br label %_ZL10_Py_DECREFP7_object.exit.thread

_ZL10_Py_DECREFP7_object.exit.thread:             ; preds = %22, %16, %31, %_ZL10_Py_DECREFP7_object.exit
  %.2 = phi i32 [ %35, %_ZL10_Py_DECREFP7_object.exit ], [ %19, %22 ], [ %19, %16 ], [ -1, %31 ]
  ret i32 %.2
}